target datalayout = "e-m:e-p270:32:32-p271:32:32-p272:64:64-i64:64-i128:128-f80:128-n8:16:32:64-S128"
target triple = "x86_64-pc-linux-gnu"

%struct.rb_data_type_struct = type { ptr, %struct.anon, ptr, ptr, i64 }
%struct.anon = type { ptr, ptr, ptr, ptr, [1 x ptr] }
%struct.SimpleDateData = type { i32, i32, i64, float, i32, i32 }
%struct.ComplexDateData = type { i32, i32, i64, float, i32, i32, i32, i32, i64 }

@d_lite_type = internal constant %struct.rb_data_type_struct { ptr @.str.14, %struct.anon { ptr @d_lite_gc_mark, ptr inttoptr (i64 -1 to ptr), ptr @d_lite_memsize, ptr null, [1 x ptr] zeroinitializer }, ptr null, ptr null, i64 289 }, align 8

; Function Attrs: inlinehint nounwind sspstrong uwtable
define internal double @m_sg(ptr noundef %0) #3 {
  %2 = alloca double, align 8
  %3 = alloca ptr, align 8
  store ptr %0, ptr %3, align 8, !tbaa !27
  %4 = load ptr, ptr %3, align 8, !tbaa !27
  %5 = load i32, ptr %4, align 8, !tbaa !38
  %6 = and i32 %5, 128
  %7 = icmp ne i32 %6, 0
  br i1 %7, label %13, label %8

8:                                                ; preds = %1
  %9 = load ptr, ptr %3, align 8, !tbaa !27
  %10 = getelementptr inbounds nuw %struct.SimpleDateData, ptr %9, i32 0, i32 3
  %11 = load float, ptr %10, align 8, !tbaa !38
  %12 = fpext float %11 to double
  store double %12, ptr %2, align 8
  br label %19

13:                                               ; preds = %1
  %14 = load ptr, ptr %3, align 8, !tbaa !27
  call void @get_c_jd(ptr noundef %14)
  %15 = load ptr, ptr %3, align 8, !tbaa !27
  %16 = getelementptr inbounds nuw %struct.ComplexDateData, ptr %15, i32 0, i32 3
  %17 = load float, ptr %16, align 8, !tbaa !38
  %18 = fpext float %17 to double
  store double %18, ptr %2, align 8
  br label %19

19:                                               ; preds = %13, %8
  %20 = load double, ptr %2, align 8
  ret double %20
}

; Function Attrs: nounwind sspstrong uwtable
define internal i64 @d_lite_start(i64 noundef %0) #0 {
  %2 = alloca i64, align 8
  %3 = alloca ptr, align 8
  store i64 %0, ptr %2, align 8, !tbaa !6
  call void @llvm.lifetime.start.p0(i64 8, ptr %3) #23
  %4 = load i64, ptr %2, align 8, !tbaa !6
  %5 = call ptr @rb_check_typeddata(i64 noundef %4, ptr noundef @d_lite_type)
  store ptr %5, ptr %3, align 8, !tbaa !27
  %6 = load ptr, ptr %3, align 8, !tbaa !27
  %7 = call double @m_sg(ptr noundef %6)
  %8 = call i64 @rb_float_new(double noundef %7)
  call void @llvm.lifetime.end.p0(i64 8, ptr %3) #23
  ret i64 %8
}