; Function Attrs: nounwind sspstrong uwtable
define internal i64 @d_lite_start(i64 noundef %0) #0 {
  %2 = tail call ptr @rb_check_typeddata(i64 noundef %0, ptr noundef nonnull @d_lite_type) #21
  %3 = load i32, ptr %2, align 8, !tbaa !47
  %4 = and i32 %3, 128
  %.not.i = icmp eq i32 %4, 0
  br i1 %.not.i, label %m_sg.exit, label %5

5:                                                ; preds = %1
  tail call fastcc void @get_c_jd(ptr noundef nonnull %2)
  br label %m_sg.exit

m_sg.exit:                                        ; preds = %1, %5
  %.0.in.in.i = getelementptr inbounds nuw i8, ptr %2, i64 16
  %.0.in.i = load float, ptr %.0.in.in.i, align 8, !tbaa !47
  %.0.i = fpext float %.0.in.i to double
  %6 = tail call i64 @rb_float_new(double noundef %.0.i) #21
  ret i64 %6
}